target datalayout = "e-m:e-p270:32:32-p271:32:32-p272:64:64-i64:64-i128:128-f80:128-n8:16:32:64-S128"
target triple = "x86_64-pc-linux-gnu"

@.str.27 = private unnamed_addr constant [2 x i8] c".\00", align 1
@.str.29 = private unnamed_addr constant [2 x i8] c"/\00", align 1

; Function Attrs: nounwind uwtable
define internal i32 @lj_cf_package_searchpath(ptr noundef %0) #0 {
  %2 = alloca i32, align 4
  %3 = alloca ptr, align 8
  %4 = alloca ptr, align 8
  %5 = alloca i32, align 4
  store ptr %0, ptr %3, align 8, !tbaa !4
  call void @llvm.lifetime.start.p0(i64 8, ptr %4) #5
  %6 = load ptr, ptr %3, align 8, !tbaa !4
  %7 = load ptr, ptr %3, align 8, !tbaa !4
  %8 = call ptr @luaL_checklstring(ptr noundef %7, i32 noundef 1, ptr noundef null)
  %9 = load ptr, ptr %3, align 8, !tbaa !4
  %10 = call ptr @luaL_checklstring(ptr noundef %9, i32 noundef 2, ptr noundef null)
  %11 = load ptr, ptr %3, align 8, !tbaa !4
  %12 = call ptr @luaL_optlstring(ptr noundef %11, i32 noundef 3, ptr noundef @.str.27, ptr noundef null)
  %13 = load ptr, ptr %3, align 8, !tbaa !4
  %14 = call ptr @luaL_optlstring(ptr noundef %13, i32 noundef 4, ptr noundef @.str.29, ptr noundef null)
  %15 = call ptr @searchpath(ptr noundef %6, ptr noundef %8, ptr noundef %10, ptr noundef %12, ptr noundef %14)
  store ptr %15, ptr %4, align 8, !tbaa !14
  %16 = load ptr, ptr %4, align 8, !tbaa !14
  %17 = icmp ne ptr %16, null
  br i1 %17, label %18, label %19

18:                                               ; preds = %1
  store i32 1, ptr %2, align 4
  store i32 1, ptr %5, align 4
  br label %22

19:                                               ; preds = %1
  %20 = load ptr, ptr %3, align 8, !tbaa !4
  call void @lua_pushnil(ptr noundef %20)
  %21 = load ptr, ptr %3, align 8, !tbaa !4
  call void @lua_insert(ptr noundef %21, i32 noundef -2)
  store i32 2, ptr %2, align 4
  store i32 1, ptr %5, align 4
  br label %22

22:                                               ; preds = %19, %18
  call void @llvm.lifetime.end.p0(i64 8, ptr %4) #5
  %23 = load i32, ptr %2, align 4
  ret i32 %23
}