; Function Attrs: nounwind uwtable
define internal range(i32 1, 3) i32 @lj_cf_package_searchpath(ptr noundef %0) #0 {
  %2 = tail call ptr @luaL_checklstring(ptr noundef %0, i32 noundef 1, ptr noundef null) #7
  %3 = tail call ptr @luaL_checklstring(ptr noundef %0, i32 noundef 2, ptr noundef null) #7
  %4 = tail call ptr @luaL_optlstring(ptr noundef %0, i32 noundef 3, ptr noundef nonnull @.str.27, ptr noundef null) #7
  %5 = tail call ptr @luaL_optlstring(ptr noundef %0, i32 noundef 4, ptr noundef nonnull @.str.29, ptr noundef null) #7
  %6 = tail call fastcc ptr @searchpath(ptr noundef %0, ptr noundef %2, ptr noundef %3, ptr noundef %4, ptr noundef %5)
  %.not = icmp eq ptr %6, null
  br i1 %.not, label %7, label %8

7:                                                ; preds = %1
  tail call void @lua_pushnil(ptr noundef %0) #7
  tail call void @lua_insert(ptr noundef %0, i32 noundef -2) #7
  br label %8

8:                                                ; preds = %1, %7
  %.0 = phi i32 [ 2, %7 ], [ 1, %1 ]
  ret i32 %.0
}